target datalayout = "e-m:e-p270:32:32-p271:32:32-p272:64:64-i64:64-i128:128-f80:128-n8:16:32:64-S128"
target triple = "x86_64-pc-linux-gnu"

%"class.Json::Features" = type { i8, i8, i8, i8 }
%"class.Json::Reader" = type <{ %"class.std::stack", %"class.std::deque.0", %"class.std::__cxx11::basic_string", ptr, ptr, ptr, ptr, ptr, %"class.std::__cxx11::basic_string", %"class.Json::Features", i8, [3 x i8] }>
%"class.std::stack" = type { %"class.std::deque" }
%"class.std::deque" = type { %"class.std::_Deque_base" }
%"class.std::_Deque_base" = type { %"struct.std::_Deque_base<Json::Value *, std::allocator<Json::Value *>>::_Deque_impl" }
%"struct.std::_Deque_base<Json::Value *, std::allocator<Json::Value *>>::_Deque_impl" = type { %"struct.std::_Deque_base<Json::Value *, std::allocator<Json::Value *>>::_Deque_impl_data" }
%"struct.std::_Deque_base<Json::Value *, std::allocator<Json::Value *>>::_Deque_impl_data" = type { ptr, i64, %"struct.std::_Deque_iterator", %"struct.std::_Deque_iterator" }
%"struct.std::_Deque_iterator" = type { ptr, ptr, ptr, ptr }
%"class.std::deque.0" = type { %"class.std::_Deque_base.1" }
%"class.std::_Deque_base.1" = type { %"struct.std::_Deque_base<Json::Reader::ErrorInfo, std::allocator<Json::Reader::ErrorInfo>>::_Deque_impl" }
%"struct.std::_Deque_base<Json::Reader::ErrorInfo, std::allocator<Json::Reader::ErrorInfo>>::_Deque_impl" = type { %"struct.std::_Deque_base<Json::Reader::ErrorInfo, std::allocator<Json::Reader::ErrorInfo>>::_Deque_impl_data" }
%"struct.std::_Deque_base<Json::Reader::ErrorInfo, std::allocator<Json::Reader::ErrorInfo>>::_Deque_impl_data" = type { ptr, i64, %"struct.std::_Deque_iterator.5", %"struct.std::_Deque_iterator.5" }
%"struct.std::_Deque_iterator.5" = type { ptr, ptr, ptr, ptr }
%"class.std::__cxx11::basic_string" = type { %"struct.std::__cxx11::basic_string<char>::_Alloc_hider", i64, %union.anon }
%"struct.std::__cxx11::basic_string<char>::_Alloc_hider" = type { ptr }
%union.anon = type { i64, [8 x i8] }
%"class.Json::Reader::Token" = type { i32, ptr, ptr }

; Function Attrs: mustprogress nounwind uwtable
define linkonce_odr dso_local noundef i64 @_ZSt16__deque_buf_sizem(i64 noundef %0) #4 comdat {
  %2 = alloca i64, align 8
  store i64 %0, ptr %2, align 8
  %3 = load i64, ptr %2, align 8
  %4 = icmp ult i64 %3, 512
  br i1 %4, label %5, label %8

5:                                                ; preds = %1
  %6 = load i64, ptr %2, align 8
  %7 = udiv i64 512, %6
  br label %9

8:                                                ; preds = %1
  br label %9

9:                                                ; preds = %8, %5
  %10 = phi i64 [ %7, %5 ], [ 1, %8 ]
  ret i64 %10
}

; Function Attrs: mustprogress nounwind uwtable
define linkonce_odr dso_local noundef i64 @_ZNSt15_Deque_iteratorIN4Json6Reader9ErrorInfoERS2_PS2_E14_S_buffer_sizeEv() #4 comdat align 2 {
  %1 = call noundef i64 @_ZSt16__deque_buf_sizem(i64 noundef 64)
  ret i64 %1
}

; Function Attrs: mustprogress nounwind uwtable
define linkonce_odr dso_local noundef i64 @_ZStmiRKSt15_Deque_iteratorIN4Json6Reader9ErrorInfoERS2_PS2_ES7_(ptr noundef nonnull align 8 dereferenceable(32) %0, ptr noundef nonnull align 8 dereferenceable(32) %1) #4 comdat {
  %3 = alloca ptr, align 8
  %4 = alloca ptr, align 8
  store ptr %0, ptr %3, align 8
  store ptr %1, ptr %4, align 8
  %5 = call noundef i64 @_ZNSt15_Deque_iteratorIN4Json6Reader9ErrorInfoERS2_PS2_E14_S_buffer_sizeEv() #3
  %6 = load ptr, ptr %3, align 8
  %7 = getelementptr inbounds %"struct.std::_Deque_iterator.5", ptr %6, i32 0, i32 3
  %8 = load ptr, ptr %7, align 8
  %9 = load ptr, ptr %4, align 8
  %10 = getelementptr inbounds %"struct.std::_Deque_iterator.5", ptr %9, i32 0, i32 3
  %11 = load ptr, ptr %10, align 8
  %12 = ptrtoint ptr %8 to i64
  %13 = ptrtoint ptr %11 to i64
  %14 = sub i64 %12, %13
  %15 = sdiv exact i64 %14, 8
  %16 = load ptr, ptr %3, align 8
  %17 = getelementptr inbounds %"struct.std::_Deque_iterator.5", ptr %16, i32 0, i32 3
  %18 = load ptr, ptr %17, align 8
  %19 = icmp ne ptr %18, null
  %20 = zext i1 %19 to i64
  %21 = sub nsw i64 %15, %20
  %22 = mul nsw i64 %5, %21
  %23 = load ptr, ptr %3, align 8
  %24 = getelementptr inbounds %"struct.std::_Deque_iterator.5", ptr %23, i32 0, i32 0
  %25 = load ptr, ptr %24, align 8
  %26 = load ptr, ptr %3, align 8
  %27 = getelementptr inbounds %"struct.std::_Deque_iterator.5", ptr %26, i32 0, i32 1
  %28 = load ptr, ptr %27, align 8
  %29 = ptrtoint ptr %25 to i64
  %30 = ptrtoint ptr %28 to i64
  %31 = sub i64 %29, %30
  %32 = sdiv exact i64 %31, 64
  %33 = add nsw i64 %22, %32
  %34 = load ptr, ptr %4, align 8
  %35 = getelementptr inbounds %"struct.std::_Deque_iterator.5", ptr %34, i32 0, i32 2
  %36 = load ptr, ptr %35, align 8
  %37 = load ptr, ptr %4, align 8
  %38 = getelementptr inbounds %"struct.std::_Deque_iterator.5", ptr %37, i32 0, i32 0
  %39 = load ptr, ptr %38, align 8
  %40 = ptrtoint ptr %36 to i64
  %41 = ptrtoint ptr %39 to i64
  %42 = sub i64 %40, %41
  %43 = sdiv exact i64 %42, 64
  %44 = add nsw i64 %33, %43
  ret i64 %44
}

; Function Attrs: mustprogress nounwind uwtable
define linkonce_odr dso_local noundef i64 @_ZNKSt5dequeIN4Json6Reader9ErrorInfoESaIS2_EE4sizeEv(ptr noundef nonnull align 8 dereferenceable(80) %0) #4 comdat align 2 {
  %2 = alloca ptr, align 8
  store ptr %0, ptr %2, align 8
  %3 = load ptr, ptr %2, align 8
  %4 = getelementptr inbounds %"class.std::_Deque_base.1", ptr %3, i32 0, i32 0
  %5 = getelementptr inbounds %"struct.std::_Deque_base<Json::Reader::ErrorInfo, std::allocator<Json::Reader::ErrorInfo>>::_Deque_impl_data", ptr %4, i32 0, i32 3
  %6 = getelementptr inbounds %"class.std::_Deque_base.1", ptr %3, i32 0, i32 0
  %7 = getelementptr inbounds %"struct.std::_Deque_base<Json::Reader::ErrorInfo, std::allocator<Json::Reader::ErrorInfo>>::_Deque_impl_data", ptr %6, i32 0, i32 2
  %8 = call noundef i64 @_ZStmiRKSt15_Deque_iteratorIN4Json6Reader9ErrorInfoERS2_PS2_ES7_(ptr noundef nonnull align 8 dereferenceable(32) %5, ptr noundef nonnull align 8 dereferenceable(32) %7) #3
  ret i64 %8
}

; Function Attrs: mustprogress uwtable
define dso_local noundef zeroext i1 @_ZN4Json6Reader16recoverFromErrorENS0_9TokenTypeE(ptr noundef nonnull align 8 dereferenceable(269) %0, i32 noundef %1) #5 align 2 {
  %3 = alloca ptr, align 8
  %4 = alloca i32, align 4
  %5 = alloca i64, align 8
  %6 = alloca %"class.Json::Reader::Token", align 8
  store ptr %0, ptr %3, align 8
  store i32 %1, ptr %4, align 4
  %7 = load ptr, ptr %3, align 8
  %8 = getelementptr inbounds %"class.Json::Reader", ptr %7, i32 0, i32 1
  %9 = call noundef i64 @_ZNKSt5dequeIN4Json6Reader9ErrorInfoESaIS2_EE4sizeEv(ptr noundef nonnull align 8 dereferenceable(80) %8) #3
  store i64 %9, ptr %5, align 8
  br label %10

10:                                               ; preds = %25, %2
  %11 = call noundef zeroext i1 @_ZN4Json6Reader9readTokenERNS0_5TokenE(ptr noundef nonnull align 8 dereferenceable(269) %7, ptr noundef nonnull align 8 dereferenceable(24) %6)
  br i1 %11, label %15, label %12

12:                                               ; preds = %10
  %13 = getelementptr inbounds %"class.Json::Reader", ptr %7, i32 0, i32 1
  %14 = load i64, ptr %5, align 8
  call void @_ZNSt5dequeIN4Json6Reader9ErrorInfoESaIS2_EE6resizeEm(ptr noundef nonnull align 8 dereferenceable(80) %13, i64 noundef %14)
  br label %15

15:                                               ; preds = %12, %10
  %16 = getelementptr inbounds %"class.Json::Reader::Token", ptr %6, i32 0, i32 0
  %17 = load i32, ptr %16, align 8
  %18 = load i32, ptr %4, align 4
  %19 = icmp eq i32 %17, %18
  br i1 %19, label %24, label %20

20:                                               ; preds = %15
  %21 = getelementptr inbounds %"class.Json::Reader::Token", ptr %6, i32 0, i32 0
  %22 = load i32, ptr %21, align 8
  %23 = icmp eq i32 %22, 0
  br i1 %23, label %24, label %25

24:                                               ; preds = %20, %15
  br label %26

25:                                               ; preds = %20
  br label %10, !llvm.loop !23

26:                                               ; preds = %24
  %27 = getelementptr inbounds %"class.Json::Reader", ptr %7, i32 0, i32 1
  %28 = load i64, ptr %5, align 8
  call void @_ZNSt5dequeIN4Json6Reader9ErrorInfoESaIS2_EE6resizeEm(ptr noundef nonnull align 8 dereferenceable(80) %27, i64 noundef %28)
  ret i1 false
}