; Function Attrs: mustprogress uwtable
define dso_local noundef zeroext i1 @_ZN4Json6Reader16recoverFromErrorENS0_9TokenTypeE(ptr noundef nonnull align 8 dereferenceable(269) %0, i32 noundef %1) local_unnamed_addr #6 align 2 {
  %3 = alloca %"class.Json::Reader::Token", align 8
  %4 = getelementptr inbounds i8, ptr %0, i64 80
  %5 = getelementptr inbounds i8, ptr %0, i64 128
  %6 = getelementptr inbounds i8, ptr %0, i64 96
  %7 = getelementptr inbounds i8, ptr %0, i64 152
  %8 = load ptr, ptr %7, align 8
  %9 = getelementptr inbounds i8, ptr %0, i64 120
  %10 = load ptr, ptr %9, align 8
  %11 = ptrtoint ptr %8 to i64
  %12 = ptrtoint ptr %10 to i64
  %13 = sub i64 %11, %12
  %14 = icmp ne ptr %8, null
  %.neg.i.i = sext i1 %14 to i64
  %15 = shl nsw i64 %.neg.i.i, 3
  %16 = add i64 %13, %15
  %17 = and i64 %16, -8
  %18 = load ptr, ptr %5, align 8
  %19 = getelementptr inbounds i8, ptr %0, i64 136
  %20 = load ptr, ptr %19, align 8
  %21 = ptrtoint ptr %18 to i64
  %22 = ptrtoint ptr %20 to i64
  %23 = sub i64 %21, %22
  %24 = ashr exact i64 %23, 6
  %25 = add nsw i64 %24, %17
  %26 = getelementptr inbounds i8, ptr %0, i64 112
  %27 = load ptr, ptr %26, align 8
  %28 = load ptr, ptr %6, align 8
  %29 = ptrtoint ptr %27 to i64
  %30 = ptrtoint ptr %28 to i64
  %31 = sub i64 %29, %30
  %32 = ashr exact i64 %31, 6
  %33 = add nsw i64 %25, %32
  br label %34

34:                                               ; preds = %37, %2
  %35 = call noundef zeroext i1 @_ZN4Json6Reader9readTokenERNS0_5TokenE(ptr noundef nonnull align 8 dereferenceable(269) %0, ptr noundef nonnull align 8 dereferenceable(24) %3)
  br i1 %35, label %37, label %36

36:                                               ; preds = %34
  tail call void @_ZNSt5dequeIN4Json6Reader9ErrorInfoESaIS2_EE6resizeEm(ptr noundef nonnull align 8 dereferenceable(80) %4, i64 noundef %33)
  br label %37

37:                                               ; preds = %36, %34
  %38 = load i32, ptr %3, align 8
  %39 = icmp eq i32 %38, %1
  %40 = icmp eq i32 %38, 0
  %or.cond = or i1 %39, %40
  br i1 %or.cond, label %41, label %34, !llvm.loop !122

41:                                               ; preds = %37
  tail call void @_ZNSt5dequeIN4Json6Reader9ErrorInfoESaIS2_EE6resizeEm(ptr noundef nonnull align 8 dereferenceable(80) %4, i64 noundef %33)
  ret i1 false
}